target datalayout = "e-m:e-p270:32:32-p271:32:32-p272:64:64-i64:64-i128:128-f80:128-n8:16:32:64-S128"
target triple = "x86_64-pc-linux-gnu"

%struct._GtkDarktableGradientSlider = type { %struct._GtkDrawingArea, ptr, i32, i32, i32, [10 x double], [10 x double], [10 x i32], double, double, [3 x double], i32, i32, i32, i32, i32, i32, i32, i32, i32, ptr }
%struct._GtkDrawingArea = type { %struct._GtkWidget, ptr }
%struct._GtkWidget = type { %struct._GObject, ptr }
%struct._GObject = type { %struct._GTypeInstance, i32, ptr }
%struct._GTypeInstance = type { ptr }
%struct._GTypeClass = type { i64 }
%struct._GdkEventKey = type { i32, ptr, i8, i32, i32, i32, i32, ptr, i16, i8, i8 }

@_gradient_slider_get_type.static_g_define_type_id = internal global i64 0, align 8
@.str.9 = private unnamed_addr constant [33 x i8] c"DTGTK_IS_GRADIENT_SLIDER(widget)\00", align 1
@__func__._gradient_slider_key_press_event = private unnamed_addr constant [33 x i8] c"_gradient_slider_key_press_event\00", align 1

; Function Attrs: nounwind uwtable
define i64 @_gradient_slider_get_type() #0 {
  %1 = alloca i32, align 4
  %2 = alloca i64, align 8
  %3 = alloca ptr, align 8
  %4 = alloca i64, align 8
  %5 = alloca i64, align 8
  call void @llvm.lifetime.start.p0(i64 8, ptr %2) #11
  call void @llvm.lifetime.start.p0(i64 8, ptr %3) #11
  store ptr @_gradient_slider_get_type.static_g_define_type_id, ptr %3, align 8, !tbaa !6
  %6 = load ptr, ptr %3, align 8, !tbaa !6
  %7 = load atomic i64, ptr %6 seq_cst, align 8
  store i64 %7, ptr %2, align 8
  %8 = load i64, ptr %2, align 8, !tbaa !11
  store i64 %8, ptr %4, align 8, !tbaa !11
  call void @llvm.lifetime.end.p0(i64 8, ptr %3) #11
  call void @llvm.lifetime.end.p0(i64 8, ptr %2) #11
  %9 = load i64, ptr %4, align 8, !tbaa !11
  %10 = icmp ne i64 %9, 0
  br i1 %10, label %14, label %11

11:                                               ; preds = %0
  %12 = call i32 @g_once_init_enter(ptr noundef @_gradient_slider_get_type.static_g_define_type_id)
  %13 = icmp ne i32 %12, 0
  br label %14

14:                                               ; preds = %11, %0
  %15 = phi i1 [ false, %0 ], [ %13, %11 ]
  %16 = zext i1 %15 to i32
  store i32 %16, ptr %1, align 4, !tbaa !13
  %17 = load i32, ptr %1, align 4, !tbaa !13
  %18 = icmp ne i32 %17, 0
  br i1 %18, label %19, label %22

19:                                               ; preds = %14
  call void @llvm.lifetime.start.p0(i64 8, ptr %5) #11
  %20 = call i64 @_gradient_slider_get_type_once()
  store i64 %20, ptr %5, align 8, !tbaa !11
  %21 = load i64, ptr %5, align 8, !tbaa !11
  call void @g_once_init_leave(ptr noundef @_gradient_slider_get_type.static_g_define_type_id, i64 noundef %21)
  call void @llvm.lifetime.end.p0(i64 8, ptr %5) #11
  br label %22

22:                                               ; preds = %19, %14
  %23 = load i64, ptr @_gradient_slider_get_type.static_g_define_type_id, align 8, !tbaa !11
  ret i64 %23
}

; Function Attrs: nounwind uwtable
define i64 @dtgtk_gradient_slider_get_type() #0 {
  %1 = call i64 @_gradient_slider_get_type()
  ret i64 %1
}

; Function Attrs: inlinehint nounwind uwtable
define internal i32 @_get_active_marker(ptr noundef %0) #8 {
  %2 = alloca ptr, align 8
  store ptr %0, ptr %2, align 8, !tbaa !24
  %3 = load ptr, ptr %2, align 8, !tbaa !24
  %4 = getelementptr inbounds nuw %struct._GtkDarktableGradientSlider, ptr %3, i32 0, i32 2
  %5 = load i32, ptr %4, align 8, !tbaa !41
  %6 = icmp sge i32 %5, 0
  br i1 %6, label %7, label %11

7:                                                ; preds = %1
  %8 = load ptr, ptr %2, align 8, !tbaa !24
  %9 = getelementptr inbounds nuw %struct._GtkDarktableGradientSlider, ptr %8, i32 0, i32 2
  %10 = load i32, ptr %9, align 8, !tbaa !41
  br label %15

11:                                               ; preds = %1
  %12 = load ptr, ptr %2, align 8, !tbaa !24
  %13 = getelementptr inbounds nuw %struct._GtkDarktableGradientSlider, ptr %12, i32 0, i32 3
  %14 = load i32, ptr %13, align 4, !tbaa !42
  br label %15

15:                                               ; preds = %11, %7
  %16 = phi i32 [ %10, %7 ], [ %14, %11 ]
  ret i32 %16
}

; Function Attrs: inlinehint nounwind uwtable
define internal ptr @DTGTK_GRADIENT_SLIDER(ptr noundef %0) #8 {
  %2 = alloca ptr, align 8
  store ptr %0, ptr %2, align 8, !tbaa !15
  %3 = load ptr, ptr %2, align 8, !tbaa !15
  %4 = call i64 @dtgtk_gradient_slider_get_type()
  %5 = call ptr @g_type_check_instance_cast(ptr noundef %3, i64 noundef %4)
  ret ptr %5
}

; Function Attrs: inlinehint nounwind uwtable
define internal i32 @DTGTK_IS_GRADIENT_SLIDER(ptr noundef %0) #8 {
  %2 = alloca ptr, align 8
  %3 = alloca ptr, align 8
  %4 = alloca i64, align 8
  %5 = alloca i32, align 4
  %6 = alloca i32, align 4
  store ptr %0, ptr %2, align 8, !tbaa !15
  call void @llvm.lifetime.start.p0(i64 8, ptr %3) #11
  %7 = load ptr, ptr %2, align 8, !tbaa !15
  store ptr %7, ptr %3, align 8, !tbaa !205
  call void @llvm.lifetime.start.p0(i64 8, ptr %4) #11
  %8 = call i64 @dtgtk_gradient_slider_get_type()
  store i64 %8, ptr %4, align 8, !tbaa !11
  call void @llvm.lifetime.start.p0(i64 4, ptr %5) #11
  %9 = load ptr, ptr %3, align 8, !tbaa !205
  %10 = icmp ne ptr %9, null
  br i1 %10, label %12, label %11

11:                                               ; preds = %1
  store i32 0, ptr %5, align 4, !tbaa !13
  br label %31

12:                                               ; preds = %1
  %13 = load ptr, ptr %3, align 8, !tbaa !205
  %14 = getelementptr inbounds nuw %struct._GTypeInstance, ptr %13, i32 0, i32 0
  %15 = load ptr, ptr %14, align 8, !tbaa !207
  %16 = icmp ne ptr %15, null
  br i1 %16, label %17, label %26

17:                                               ; preds = %12
  %18 = load ptr, ptr %3, align 8, !tbaa !205
  %19 = getelementptr inbounds nuw %struct._GTypeInstance, ptr %18, i32 0, i32 0
  %20 = load ptr, ptr %19, align 8, !tbaa !207
  %21 = getelementptr inbounds nuw %struct._GTypeClass, ptr %20, i32 0, i32 0
  %22 = load i64, ptr %21, align 8, !tbaa !121
  %23 = load i64, ptr %4, align 8, !tbaa !11
  %24 = icmp eq i64 %22, %23
  br i1 %24, label %25, label %26

25:                                               ; preds = %17
  store i32 1, ptr %5, align 4, !tbaa !13
  br label %30

26:                                               ; preds = %17, %12
  %27 = load ptr, ptr %3, align 8, !tbaa !205
  %28 = load i64, ptr %4, align 8, !tbaa !11
  %29 = call i32 @g_type_check_instance_is_a(ptr noundef %27, i64 noundef %28) #14
  store i32 %29, ptr %5, align 4, !tbaa !13
  br label %30

30:                                               ; preds = %26, %25
  br label %31

31:                                               ; preds = %30, %11
  %32 = load i32, ptr %5, align 4, !tbaa !13
  store i32 %32, ptr %6, align 4, !tbaa !13
  call void @llvm.lifetime.end.p0(i64 4, ptr %5) #11
  call void @llvm.lifetime.end.p0(i64 8, ptr %4) #11
  call void @llvm.lifetime.end.p0(i64 8, ptr %3) #11
  %33 = load i32, ptr %6, align 4, !tbaa !13
  ret i32 %33
}

; Function Attrs: nounwind uwtable
define internal i32 @_gradient_slider_key_press_event(ptr noundef %0, ptr noundef %1) #0 {
  %3 = alloca i32, align 4
  %4 = alloca ptr, align 8
  %5 = alloca ptr, align 8
  %6 = alloca i32, align 4
  %7 = alloca i32, align 4
  %8 = alloca ptr, align 8
  %9 = alloca i32, align 4
  %10 = alloca float, align 4
  %11 = alloca i32, align 4
  %12 = alloca i32, align 4
  store ptr %0, ptr %4, align 8, !tbaa !54
  store ptr %1, ptr %5, align 8, !tbaa !200
  br label %13

13:                                               ; preds = %2
  call void @llvm.lifetime.start.p0(i64 4, ptr %6) #11
  %14 = load ptr, ptr %4, align 8, !tbaa !54
  %15 = call i32 @DTGTK_IS_GRADIENT_SLIDER(ptr noundef %14)
  %16 = icmp ne i32 %15, 0
  br i1 %16, label %17, label %18

17:                                               ; preds = %13
  store i32 1, ptr %6, align 4, !tbaa !13
  br label %19

18:                                               ; preds = %13
  store i32 0, ptr %6, align 4, !tbaa !13
  br label %19

19:                                               ; preds = %18, %17
  %20 = load i32, ptr %6, align 4, !tbaa !13
  store i32 %20, ptr %7, align 4, !tbaa !13
  call void @llvm.lifetime.end.p0(i64 4, ptr %6) #11
  %21 = load i32, ptr %7, align 4, !tbaa !13
  %22 = sext i32 %21 to i64
  %23 = call i64 @llvm.expect.i64(i64 %22, i64 1)
  %24 = icmp ne i64 %23, 0
  br i1 %24, label %25, label %26

25:                                               ; preds = %19
  br label %27

26:                                               ; preds = %19
  call void @g_return_if_fail_warning(ptr noundef null, ptr noundef @__func__._gradient_slider_key_press_event, ptr noundef @.str.9)
  store i32 1, ptr %3, align 4
  br label %66

27:                                               ; preds = %25
  br label %28

28:                                               ; preds = %27
  call void @llvm.lifetime.start.p0(i64 8, ptr %8) #11
  %29 = load ptr, ptr %4, align 8, !tbaa !54
  %30 = call ptr @DTGTK_GRADIENT_SLIDER(ptr noundef %29)
  store ptr %30, ptr %8, align 8, !tbaa !24
  call void @llvm.lifetime.start.p0(i64 4, ptr %9) #11
  store i32 0, ptr %9, align 4, !tbaa !13
  call void @llvm.lifetime.start.p0(i64 4, ptr %10) #11
  %31 = load ptr, ptr %8, align 8, !tbaa !24
  %32 = getelementptr inbounds nuw %struct._GtkDarktableGradientSlider, ptr %31, i32 0, i32 8
  %33 = load double, ptr %32, align 8, !tbaa !46
  %34 = fneg reassoc nsz arcp contract afn double %33
  %35 = fptrunc reassoc nsz arcp contract afn double %34 to float
  store float %35, ptr %10, align 4, !tbaa !18
  %36 = load ptr, ptr %5, align 8, !tbaa !200
  %37 = getelementptr inbounds nuw %struct._GdkEventKey, ptr %36, i32 0, i32 5
  %38 = load i32, ptr %37, align 4, !tbaa !202
  switch i32 %38, label %45 [
    i32 65362, label %39
    i32 65431, label %39
    i32 65363, label %39
    i32 65432, label %39
    i32 65364, label %44
    i32 65433, label %44
    i32 65361, label %44
    i32 65430, label %44
  ]

39:                                               ; preds = %28, %28, %28, %28
  %40 = load ptr, ptr %8, align 8, !tbaa !24
  %41 = getelementptr inbounds nuw %struct._GtkDarktableGradientSlider, ptr %40, i32 0, i32 8
  %42 = load double, ptr %41, align 8, !tbaa !46
  %43 = fptrunc reassoc nsz arcp contract afn double %42 to float
  store float %43, ptr %10, align 4, !tbaa !18
  br label %44

44:                                               ; preds = %28, %28, %28, %28, %39
  store i32 1, ptr %9, align 4, !tbaa !13
  br label %45

45:                                               ; preds = %44, %28
  %46 = load i32, ptr %9, align 4, !tbaa !13
  %47 = icmp ne i32 %46, 0
  br i1 %47, label %49, label %48

48:                                               ; preds = %45
  store i32 0, ptr %3, align 4
  store i32 1, ptr %11, align 4
  br label %65

49:                                               ; preds = %45
  call void @llvm.lifetime.start.p0(i64 4, ptr %12) #11
  %50 = load ptr, ptr %8, align 8, !tbaa !24
  %51 = call i32 @_get_active_marker(ptr noundef %50)
  store i32 %51, ptr %12, align 4, !tbaa !13
  %52 = load i32, ptr %12, align 4, !tbaa !13
  %53 = icmp eq i32 %52, -1
  br i1 %53, label %54, label %55

54:                                               ; preds = %49
  store i32 1, ptr %3, align 4
  store i32 1, ptr %11, align 4
  br label %64

55:                                               ; preds = %49
  %56 = load ptr, ptr %4, align 8, !tbaa !54
  %57 = load float, ptr %10, align 4, !tbaa !18
  %58 = fpext reassoc nsz arcp contract afn float %57 to double
  %59 = load ptr, ptr %5, align 8, !tbaa !200
  %60 = getelementptr inbounds nuw %struct._GdkEventKey, ptr %59, i32 0, i32 4
  %61 = load i32, ptr %60, align 8, !tbaa !204
  %62 = load i32, ptr %12, align 4, !tbaa !13
  %63 = call i32 @_gradient_slider_add_delta_internal(ptr noundef %56, double noundef %58, i32 noundef %61, i32 noundef %62)
  store i32 %63, ptr %3, align 4
  store i32 1, ptr %11, align 4
  br label %64

64:                                               ; preds = %55, %54
  call void @llvm.lifetime.end.p0(i64 4, ptr %12) #11
  br label %65

65:                                               ; preds = %64, %48
  call void @llvm.lifetime.end.p0(i64 4, ptr %10) #11
  call void @llvm.lifetime.end.p0(i64 4, ptr %9) #11
  call void @llvm.lifetime.end.p0(i64 8, ptr %8) #11
  br label %66

66:                                               ; preds = %65, %26
  %67 = load i32, ptr %3, align 4
  ret i32 %67
}