; Function Attrs: nounwind uwtable
define internal range(i32 0, 2) i32 @_gradient_slider_key_press_event(ptr noundef %0, ptr noundef readonly captures(none) %1) #0 {
  %3 = load atomic i64, ptr @_gradient_slider_get_type.static_g_define_type_id seq_cst, align 8
  %.not.i.i.i = icmp eq i64 %3, 0
  br i1 %.not.i.i.i, label %4, label %dtgtk_gradient_slider_get_type.exit.i

4:                                                ; preds = %2
  %5 = tail call i32 @g_once_init_enter(ptr noundef nonnull @_gradient_slider_get_type.static_g_define_type_id) #14
  %.not4.i.i.i = icmp eq i32 %5, 0
  br i1 %.not4.i.i.i, label %dtgtk_gradient_slider_get_type.exit.i, label %6

6:                                                ; preds = %4
  %7 = tail call fastcc i64 @_gradient_slider_get_type_once()
  tail call void @g_once_init_leave(ptr noundef nonnull @_gradient_slider_get_type.static_g_define_type_id, i64 noundef %7) #14
  br label %dtgtk_gradient_slider_get_type.exit.i

dtgtk_gradient_slider_get_type.exit.i:            ; preds = %6, %4, %2
  %8 = load i64, ptr @_gradient_slider_get_type.static_g_define_type_id, align 8, !tbaa !6
  %.not.i = icmp eq ptr %0, null
  br i1 %.not.i, label %DTGTK_IS_GRADIENT_SLIDER.exit.thread, label %9

9:                                                ; preds = %dtgtk_gradient_slider_get_type.exit.i
  %10 = load ptr, ptr %0, align 8, !tbaa !113
  %.not10.i = icmp eq ptr %10, null
  br i1 %.not10.i, label %DTGTK_IS_GRADIENT_SLIDER.exit, label %11

11:                                               ; preds = %9
  %12 = load i64, ptr %10, align 8, !tbaa !107
  %13 = icmp eq i64 %12, %8
  br i1 %13, label %DTGTK_IS_GRADIENT_SLIDER.exit.thread26, label %DTGTK_IS_GRADIENT_SLIDER.exit

DTGTK_IS_GRADIENT_SLIDER.exit:                    ; preds = %9, %11
  %14 = tail call i32 @g_type_check_instance_is_a(ptr noundef nonnull readonly %0, i64 noundef %8) #17
  %.not = icmp eq i32 %14, 0
  br i1 %.not, label %DTGTK_IS_GRADIENT_SLIDER.exit.thread, label %DTGTK_IS_GRADIENT_SLIDER.exit.thread26, !prof !114

DTGTK_IS_GRADIENT_SLIDER.exit.thread:             ; preds = %dtgtk_gradient_slider_get_type.exit.i, %DTGTK_IS_GRADIENT_SLIDER.exit
  tail call void @g_return_if_fail_warning(ptr noundef null, ptr noundef nonnull @__func__._gradient_slider_key_press_event, ptr noundef nonnull @.str.9) #14
  br label %40

DTGTK_IS_GRADIENT_SLIDER.exit.thread26:           ; preds = %11, %DTGTK_IS_GRADIENT_SLIDER.exit
  %15 = load atomic i64, ptr @_gradient_slider_get_type.static_g_define_type_id seq_cst, align 8
  %.not.i.i.i21 = icmp eq i64 %15, 0
  br i1 %.not.i.i.i21, label %16, label %DTGTK_GRADIENT_SLIDER.exit

16:                                               ; preds = %DTGTK_IS_GRADIENT_SLIDER.exit.thread26
  %17 = tail call i32 @g_once_init_enter(ptr noundef nonnull @_gradient_slider_get_type.static_g_define_type_id) #14
  %.not4.i.i.i23 = icmp eq i32 %17, 0
  br i1 %.not4.i.i.i23, label %DTGTK_GRADIENT_SLIDER.exit, label %18

18:                                               ; preds = %16
  %19 = tail call fastcc i64 @_gradient_slider_get_type_once()
  tail call void @g_once_init_leave(ptr noundef nonnull @_gradient_slider_get_type.static_g_define_type_id, i64 noundef %19) #14
  br label %DTGTK_GRADIENT_SLIDER.exit

DTGTK_GRADIENT_SLIDER.exit:                       ; preds = %DTGTK_IS_GRADIENT_SLIDER.exit.thread26, %16, %18
  %20 = load i64, ptr @_gradient_slider_get_type.static_g_define_type_id, align 8, !tbaa !6
  %21 = tail call ptr @g_type_check_instance_cast(ptr noundef nonnull %0, i64 noundef %20) #14
  %22 = getelementptr inbounds nuw i8, ptr %21, i64 264
  %23 = load double, ptr %22, align 8, !tbaa !38
  %24 = fptrunc reassoc nsz arcp contract afn double %23 to float
  %25 = getelementptr inbounds nuw i8, ptr %1, i64 28
  %26 = load i32, ptr %25, align 4, !tbaa !177
  switch i32 %26, label %40 [
    i32 65362, label %29
    i32 65431, label %29
    i32 65363, label %29
    i32 65432, label %29
    i32 65364, label %27
    i32 65433, label %27
    i32 65361, label %27
    i32 65430, label %27
  ]

27:                                               ; preds = %DTGTK_GRADIENT_SLIDER.exit, %DTGTK_GRADIENT_SLIDER.exit, %DTGTK_GRADIENT_SLIDER.exit, %DTGTK_GRADIENT_SLIDER.exit
  %28 = fneg reassoc nsz arcp contract afn float %24
  br label %29

29:                                               ; preds = %DTGTK_GRADIENT_SLIDER.exit, %DTGTK_GRADIENT_SLIDER.exit, %DTGTK_GRADIENT_SLIDER.exit, %DTGTK_GRADIENT_SLIDER.exit, %27
  %.014.ph = phi float [ %28, %27 ], [ %24, %DTGTK_GRADIENT_SLIDER.exit ], [ %24, %DTGTK_GRADIENT_SLIDER.exit ], [ %24, %DTGTK_GRADIENT_SLIDER.exit ], [ %24, %DTGTK_GRADIENT_SLIDER.exit ]
  %30 = getelementptr inbounds nuw i8, ptr %21, i64 48
  %31 = load i32, ptr %30, align 8, !tbaa !32
  %32 = icmp sgt i32 %31, -1
  br i1 %32, label %_get_active_marker.exit.thread, label %_get_active_marker.exit

_get_active_marker.exit:                          ; preds = %29
  %33 = getelementptr inbounds nuw i8, ptr %21, i64 52
  %34 = load i32, ptr %33, align 4, !tbaa !33
  %35 = icmp eq i32 %34, -1
  br i1 %35, label %40, label %_get_active_marker.exit.thread

_get_active_marker.exit.thread:                   ; preds = %29, %_get_active_marker.exit
  %36 = phi i32 [ %34, %_get_active_marker.exit ], [ %31, %29 ]
  %37 = fpext reassoc nsz arcp contract afn float %.014.ph to double
  %38 = getelementptr inbounds nuw i8, ptr %1, i64 24
  %39 = load i32, ptr %38, align 8, !tbaa !179
  tail call fastcc void @_gradient_slider_add_delta_internal(ptr noundef nonnull %0, double noundef %37, i32 noundef %39, i32 noundef %36)
  br label %40

40:                                               ; preds = %DTGTK_GRADIENT_SLIDER.exit, %_get_active_marker.exit, %_get_active_marker.exit.thread, %DTGTK_IS_GRADIENT_SLIDER.exit.thread
  %.0 = phi i32 [ 1, %DTGTK_IS_GRADIENT_SLIDER.exit.thread ], [ 1, %_get_active_marker.exit ], [ 1, %_get_active_marker.exit.thread ], [ 0, %DTGTK_GRADIENT_SLIDER.exit ]
  ret i32 %.0
}